target datalayout = "e-m:e-p270:32:32-p271:32:32-p272:64:64-i64:64-i128:128-f80:128-n8:16:32:64-S128"
target triple = "x86_64-unknown-linux-gnu"

; Function Attrs: mustprogress nounwind uwtable
define internal noundef zeroext i1 @_ZN6google8protobuf2io12_GLOBAL__N_116IsValidFloatCharEc(i8 noundef signext %c) #0 {
entry:
  %c.addr = alloca i8, align 1
  store i8 %c, ptr %c.addr, align 1
  %0 = load i8, ptr %c.addr, align 1
  %conv = sext i8 %0 to i32
  %cmp = icmp sle i32 48, %conv
  br i1 %cmp, label %land.lhs.true, label %lor.lhs.false

land.lhs.true:                                    ; preds = %entry
  %1 = load i8, ptr %c.addr, align 1
  %conv1 = sext i8 %1 to i32
  %cmp2 = icmp sle i32 %conv1, 57
  br i1 %cmp2, label %lor.end, label %lor.lhs.false

lor.lhs.false:                                    ; preds = %land.lhs.true, %entry
  %2 = load i8, ptr %c.addr, align 1
  %conv3 = sext i8 %2 to i32
  %cmp4 = icmp eq i32 %conv3, 101
  br i1 %cmp4, label %lor.end, label %lor.lhs.false5

lor.lhs.false5:                                   ; preds = %lor.lhs.false
  %3 = load i8, ptr %c.addr, align 1
  %conv6 = sext i8 %3 to i32
  %cmp7 = icmp eq i32 %conv6, 69
  br i1 %cmp7, label %lor.end, label %lor.lhs.false8

lor.lhs.false8:                                   ; preds = %lor.lhs.false5
  %4 = load i8, ptr %c.addr, align 1
  %conv9 = sext i8 %4 to i32
  %cmp10 = icmp eq i32 %conv9, 43
  br i1 %cmp10, label %lor.end, label %lor.rhs

lor.rhs:                                          ; preds = %lor.lhs.false8
  %5 = load i8, ptr %c.addr, align 1
  %conv11 = sext i8 %5 to i32
  %cmp12 = icmp eq i32 %conv11, 45
  br label %lor.end

lor.end:                                          ; preds = %lor.rhs, %lor.lhs.false8, %lor.lhs.false5, %lor.lhs.false, %land.lhs.true
  %6 = phi i1 [ true, %lor.lhs.false8 ], [ true, %lor.lhs.false5 ], [ true, %lor.lhs.false ], [ true, %land.lhs.true ], [ %cmp12, %lor.rhs ]
  ret i1 %6
}

; Function Attrs: mustprogress uwtable
define internal void @_ZN6google8protobuf2io12_GLOBAL__N_115DelocalizeRadixEPc(ptr noundef %buffer) #1 {
entry:
  %buffer.addr = alloca ptr, align 8
  %target = alloca ptr, align 8
  store ptr %buffer, ptr %buffer.addr, align 8
  %0 = load ptr, ptr %buffer.addr, align 8
  %call = call noundef ptr @strchr(ptr noundef %0, i32 noundef 46) #11
  %cmp = icmp ne ptr %call, null
  br i1 %cmp, label %if.then, label %if.end

if.then:                                          ; preds = %entry
  br label %if.end15

if.end:                                           ; preds = %entry
  br label %while.cond

while.cond:                                       ; preds = %while.body, %if.end
  %1 = load ptr, ptr %buffer.addr, align 8
  %2 = load i8, ptr %1, align 1
  %call1 = call noundef zeroext i1 @_ZN6google8protobuf2io12_GLOBAL__N_116IsValidFloatCharEc(i8 noundef signext %2)
  br i1 %call1, label %while.body, label %while.end

while.body:                                       ; preds = %while.cond
  %3 = load ptr, ptr %buffer.addr, align 8
  %incdec.ptr = getelementptr inbounds i8, ptr %3, i32 1
  store ptr %incdec.ptr, ptr %buffer.addr, align 8
  br label %while.cond, !llvm.loop !4

while.end:                                        ; preds = %while.cond
  %4 = load ptr, ptr %buffer.addr, align 8
  %5 = load i8, ptr %4, align 1
  %conv = sext i8 %5 to i32
  %cmp2 = icmp eq i32 %conv, 0
  br i1 %cmp2, label %if.then3, label %if.end4

if.then3:                                         ; preds = %while.end
  br label %if.end15

if.end4:                                          ; preds = %while.end
  %6 = load ptr, ptr %buffer.addr, align 8
  store i8 46, ptr %6, align 1
  %7 = load ptr, ptr %buffer.addr, align 8
  %incdec.ptr5 = getelementptr inbounds i8, ptr %7, i32 1
  store ptr %incdec.ptr5, ptr %buffer.addr, align 8
  %8 = load ptr, ptr %buffer.addr, align 8
  %9 = load i8, ptr %8, align 1
  %call6 = call noundef zeroext i1 @_ZN6google8protobuf2io12_GLOBAL__N_116IsValidFloatCharEc(i8 noundef signext %9)
  br i1 %call6, label %if.end15, label %land.lhs.true

land.lhs.true:                                    ; preds = %if.end4
  %10 = load ptr, ptr %buffer.addr, align 8
  %11 = load i8, ptr %10, align 1
  %conv7 = sext i8 %11 to i32
  %cmp8 = icmp ne i32 %conv7, 0
  br i1 %cmp8, label %if.then9, label %if.end15

if.then9:                                         ; preds = %land.lhs.true
  %12 = load ptr, ptr %buffer.addr, align 8
  store ptr %12, ptr %target, align 8
  br label %do.body

do.body:                                          ; preds = %land.end, %if.then9
  %13 = load ptr, ptr %buffer.addr, align 8
  %incdec.ptr10 = getelementptr inbounds i8, ptr %13, i32 1
  store ptr %incdec.ptr10, ptr %buffer.addr, align 8
  br label %do.cond

do.cond:                                          ; preds = %do.body
  %14 = load ptr, ptr %buffer.addr, align 8
  %15 = load i8, ptr %14, align 1
  %call11 = call noundef zeroext i1 @_ZN6google8protobuf2io12_GLOBAL__N_116IsValidFloatCharEc(i8 noundef signext %15)
  br i1 %call11, label %land.end, label %land.rhs

land.rhs:                                         ; preds = %do.cond
  %16 = load ptr, ptr %buffer.addr, align 8
  %17 = load i8, ptr %16, align 1
  %conv12 = sext i8 %17 to i32
  %cmp13 = icmp ne i32 %conv12, 0
  br label %land.end

land.end:                                         ; preds = %land.rhs, %do.cond
  %18 = phi i1 [ false, %do.cond ], [ %cmp13, %land.rhs ]
  br i1 %18, label %do.body, label %do.end, !llvm.loop !6

do.end:                                           ; preds = %land.end
  %19 = load ptr, ptr %target, align 8
  %20 = load ptr, ptr %buffer.addr, align 8
  %21 = load ptr, ptr %buffer.addr, align 8
  %call14 = call i64 @strlen(ptr noundef %21) #11
  %add = add i64 %call14, 1
  call void @llvm.memmove.p0.p0.i64(ptr align 1 %19, ptr align 1 %20, i64 %add, i1 false)
  br label %if.end15

if.end15:                                         ; preds = %do.end, %land.lhs.true, %if.end4, %if.then3, %if.then
  ret void
}