; Function Attrs: mustprogress nofree nounwind memory(argmem: readwrite) uwtable
define internal fastcc void @_ZN6google8protobuf2io12_GLOBAL__N_115DelocalizeRadixEPc(ptr noundef nonnull %buffer) unnamed_addr #5 {
entry:
  %call = tail call noundef ptr @strchr(ptr noundef nonnull dereferenceable(1) %buffer, i32 noundef 46) #15
  %cmp.not = icmp eq ptr %call, null
  br i1 %cmp.not, label %while.cond, label %if.end15

while.cond:                                       ; preds = %entry, %while.body
  %buffer.addr.0 = phi ptr [ %incdec.ptr, %while.body ], [ %buffer, %entry ]
  %0 = load i8, ptr %buffer.addr.0, align 1
  %1 = add i8 %0, -48
  %or.cond.i = icmp ult i8 %1, 10
  br i1 %or.cond.i, label %while.body, label %switch.early.test.i

switch.early.test.i:                              ; preds = %while.cond
  switch i8 %0, label %if.end4 [
    i8 101, label %while.body
    i8 69, label %while.body
    i8 43, label %while.body
    i8 45, label %while.body
    i8 0, label %if.end15
  ]

while.body:                                       ; preds = %switch.early.test.i, %switch.early.test.i, %switch.early.test.i, %switch.early.test.i, %while.cond
  %incdec.ptr = getelementptr inbounds nuw i8, ptr %buffer.addr.0, i64 1
  br label %while.cond, !llvm.loop !4

if.end4:                                          ; preds = %switch.early.test.i
  store i8 46, ptr %buffer.addr.0, align 1
  %incdec.ptr5 = getelementptr inbounds nuw i8, ptr %buffer.addr.0, i64 1
  %2 = load i8, ptr %incdec.ptr5, align 1
  %3 = add i8 %2, -48
  %or.cond.i14 = icmp ult i8 %3, 10
  br i1 %or.cond.i14, label %if.end15, label %switch.early.test.i15

switch.early.test.i15:                            ; preds = %if.end4
  switch i8 %2, label %do.body [
    i8 101, label %if.end15
    i8 69, label %if.end15
    i8 43, label %if.end15
    i8 45, label %if.end15
    i8 0, label %if.end15
  ]

do.body:                                          ; preds = %switch.early.test.i15, %switch.early.test.i19
  %buffer.addr.1 = phi ptr [ %incdec.ptr10, %switch.early.test.i19 ], [ %incdec.ptr5, %switch.early.test.i15 ]
  %incdec.ptr10 = getelementptr inbounds nuw i8, ptr %buffer.addr.1, i64 1
  %4 = load i8, ptr %incdec.ptr10, align 1
  %5 = add i8 %4, -48
  %or.cond.i18 = icmp ult i8 %5, 10
  br i1 %or.cond.i18, label %do.end, label %switch.early.test.i19

switch.early.test.i19:                            ; preds = %do.body
  switch i8 %4, label %do.body [
    i8 101, label %do.end
    i8 69, label %do.end
    i8 43, label %do.end
    i8 45, label %do.end
    i8 0, label %do.end
  ]

do.end:                                           ; preds = %switch.early.test.i19, %switch.early.test.i19, %switch.early.test.i19, %switch.early.test.i19, %switch.early.test.i19, %do.body
  %call14 = tail call i64 @strlen(ptr noundef nonnull dereferenceable(1) %incdec.ptr10) #15
  %add = add i64 %call14, 1
  tail call void @llvm.memmove.p0.p0.i64(ptr nonnull align 1 %incdec.ptr5, ptr nonnull align 1 %incdec.ptr10, i64 %add, i1 false)
  br label %if.end15

if.end15:                                         ; preds = %switch.early.test.i, %switch.early.test.i15, %switch.early.test.i15, %switch.early.test.i15, %switch.early.test.i15, %switch.early.test.i15, %if.end4, %entry, %do.end
  ret void
}